; ModuleID = 'bench/openssl/original/legacy_blake2.ll'
source_filename = "bench/openssl/original/legacy_blake2.ll"
target datalayout = "e-m:e-p270:32:32-p271:32:32-p272:64:64-i64:64-i128:128-f80:128-n8:16:32:64-S128"
target triple = "x86_64-pc-linux-gnu"

%struct.CRYPTO_REF_COUNT = type { i32 }
%struct.blake2b_param_st = type { i8, i8, i8, i8, [4 x i8], [8 x i8], i8, i8, [14 x i8], [16 x i8], [16 x i8] }
%struct.blake2s_param_st = type { i8, i8, i8, i8, [4 x i8], [6 x i8], i8, i8, [8 x i8], [8 x i8] }

@blake2b_md = internal constant { i32, i32, i32, [4 x i8], i64, i32, [4 x i8], ptr, ptr, ptr, ptr, ptr, i32, i32, ptr, i32, [4 x i8], ptr, ptr, ptr, %struct.CRYPTO_REF_COUNT, [4 x i8], ptr, ptr, ptr, ptr, ptr, ptr, ptr, ptr, ptr, ptr, ptr, ptr, ptr, ptr, ptr } { i32 1056, i32 0, i32 64, [4 x i8] zeroinitializer, i64 0, i32 1, [4 x i8] zeroinitializer, ptr @blake2b_int_init, ptr @blake2b_int_update, ptr @blake2b_int_final, ptr null, ptr null, i32 128, i32 0, ptr null, i32 0, [4 x i8] zeroinitializer, ptr null, ptr null, ptr null, %struct.CRYPTO_REF_COUNT zeroinitializer, [4 x i8] zeroinitializer, ptr null, ptr null, ptr null, ptr null, ptr null, ptr null, ptr null, ptr null, ptr null, ptr null, ptr null, ptr null, ptr null, ptr null, ptr null }, align 8
@blake2s_md = internal constant { i32, i32, i32, [4 x i8], i64, i32, [4 x i8], ptr, ptr, ptr, ptr, ptr, i32, i32, ptr, i32, [4 x i8], ptr, ptr, ptr, %struct.CRYPTO_REF_COUNT, [4 x i8], ptr, ptr, ptr, ptr, ptr, ptr, ptr, ptr, ptr, ptr, ptr, ptr, ptr, ptr, ptr } { i32 1057, i32 0, i32 32, [4 x i8] zeroinitializer, i64 0, i32 1, [4 x i8] zeroinitializer, ptr @blake2s_int_init, ptr @blake2s_int_update, ptr @blake2s_int_final, ptr null, ptr null, i32 64, i32 0, ptr null, i32 0, [4 x i8] zeroinitializer, ptr null, ptr null, ptr null, %struct.CRYPTO_REF_COUNT zeroinitializer, [4 x i8] zeroinitializer, ptr null, ptr null, ptr null, ptr null, ptr null, ptr null, ptr null, ptr null, ptr null, ptr null, ptr null, ptr null, ptr null, ptr null, ptr null }, align 8

; Function Attrs: mustprogress nofree norecurse nosync nounwind willreturn memory(none) uwtable
define noundef nonnull ptr @EVP_blake2b512() local_unnamed_addr #0 {
  ret ptr @blake2b_md
}

; Function Attrs: mustprogress nofree norecurse nosync nounwind willreturn memory(none) uwtable
define noundef nonnull ptr @EVP_blake2s256() local_unnamed_addr #0 {
  ret ptr @blake2s_md
}

; Function Attrs: nounwind uwtable
define internal i32 @blake2b_int_init(ptr noundef %0) #1 {
  %2 = alloca %struct.blake2b_param_st, align 1
  %3 = tail call ptr @EVP_MD_CTX_get0_md_data(ptr noundef %0) #4
  call void @llvm.lifetime.start.p0(i64 64, ptr nonnull %2) #4
  call void @ossl_blake2b_param_init(ptr noundef nonnull %2) #4
  %4 = call i32 @ossl_blake2b_init(ptr noundef %3, ptr noundef nonnull %2) #4
  call void @llvm.lifetime.end.p0(i64 64, ptr nonnull %2) #4
  ret i32 %4
}

; Function Attrs: nounwind uwtable
define internal i32 @blake2b_int_update(ptr noundef %0, ptr noundef %1, i64 noundef %2) #1 {
  %4 = tail call ptr @EVP_MD_CTX_get0_md_data(ptr noundef %0) #4
  %5 = tail call i32 @ossl_blake2b_update(ptr noundef %4, ptr noundef %1, i64 noundef %2) #4
  ret i32 %5
}

; Function Attrs: nounwind uwtable
define internal i32 @blake2b_int_final(ptr noundef %0, ptr noundef %1) #1 {
  %3 = tail call ptr @EVP_MD_CTX_get0_md_data(ptr noundef %0) #4
  %4 = tail call i32 @ossl_blake2b_final(ptr noundef %1, ptr noundef %3) #4
  ret i32 %4
}

declare ptr @EVP_MD_CTX_get0_md_data(ptr noundef) local_unnamed_addr #2

; Function Attrs: mustprogress nocallback nofree nosync nounwind willreturn memory(argmem: readwrite)
declare void @llvm.lifetime.start.p0(i64 immarg, ptr captures(none)) #3

declare void @ossl_blake2b_param_init(ptr noundef) local_unnamed_addr #2

declare i32 @ossl_blake2b_init(ptr noundef, ptr noundef) local_unnamed_addr #2

; Function Attrs: mustprogress nocallback nofree nosync nounwind willreturn memory(argmem: readwrite)
declare void @llvm.lifetime.end.p0(i64 immarg, ptr captures(none)) #3

declare i32 @ossl_blake2b_update(ptr noundef, ptr noundef, i64 noundef) local_unnamed_addr #2

declare i32 @ossl_blake2b_final(ptr noundef, ptr noundef) local_unnamed_addr #2

; Function Attrs: nounwind uwtable
define internal i32 @blake2s_int_init(ptr noundef %0) #1 {
  %2 = alloca %struct.blake2s_param_st, align 1
  %3 = tail call ptr @EVP_MD_CTX_get0_md_data(ptr noundef %0) #4
  call void @llvm.lifetime.start.p0(i64 32, ptr nonnull %2) #4
  call void @ossl_blake2s_param_init(ptr noundef nonnull %2) #4
  %4 = call i32 @ossl_blake2s_init(ptr noundef %3, ptr noundef nonnull %2) #4
  call void @llvm.lifetime.end.p0(i64 32, ptr nonnull %2) #4
  ret i32 %4
}

; Function Attrs: nounwind uwtable
define internal i32 @blake2s_int_update(ptr noundef %0, ptr noundef %1, i64 noundef %2) #1 {
  %4 = tail call ptr @EVP_MD_CTX_get0_md_data(ptr noundef %0) #4
  %5 = tail call i32 @ossl_blake2s_update(ptr noundef %4, ptr noundef %1, i64 noundef %2) #4
  ret i32 %5
}

; Function Attrs: nounwind uwtable
define internal i32 @blake2s_int_final(ptr noundef %0, ptr noundef %1) #1 {
  %3 = tail call ptr @EVP_MD_CTX_get0_md_data(ptr noundef %0) #4
  %4 = tail call i32 @ossl_blake2s_final(ptr noundef %1, ptr noundef %3) #4
  ret i32 %4
}

declare void @ossl_blake2s_param_init(ptr noundef) local_unnamed_addr #2

declare i32 @ossl_blake2s_init(ptr noundef, ptr noundef) local_unnamed_addr #2

declare i32 @ossl_blake2s_update(ptr noundef, ptr noundef, i64 noundef) local_unnamed_addr #2

declare i32 @ossl_blake2s_final(ptr noundef, ptr noundef) local_unnamed_addr #2


!llvm.module.flags = !{!0, !1, !2}

!0 = !{i32 1, !"wchar_size", i32 4}
!1 = !{i32 8, !"PIC Level", i32 2}
!2 = !{i32 7, !"uwtable", i32 2}
